; Function Attrs: mustprogress uwtable
define hidden noundef i32 @_ZN4ncnn16InnerProduct_x8616destroy_pipelineERKNS_6OptionE(ptr noundef nonnull align 8 captures(none) dereferenceable(744) %0, ptr noundef nonnull align 8 dereferenceable(64) %1) unnamed_addr #3 align 2 {
  %3 = getelementptr inbounds nuw i8, ptr %0, i64 592
  %4 = load ptr, ptr %3, align 8, !tbaa !18
  %.not = icmp eq ptr %4, null
  br i1 %.not, label %17, label %5

5:                                                ; preds = %2
  %6 = load ptr, ptr %4, align 8, !tbaa !4
  %7 = getelementptr inbounds nuw i8, ptr %6, i64 40
  %8 = load ptr, ptr %7, align 8
  %9 = tail call noundef i32 %8(ptr noundef nonnull align 8 dereferenceable(208) %4, ptr noundef nonnull align 8 dereferenceable(64) %1)
  %10 = load ptr, ptr %3, align 8, !tbaa !18
  %11 = icmp eq ptr %10, null
  br i1 %11, label %16, label %12

12:                                               ; preds = %5
  %13 = load ptr, ptr %10, align 8, !tbaa !4
  %14 = getelementptr inbounds nuw i8, ptr %13, i64 8
  %15 = load ptr, ptr %14, align 8
  tail call void %15(ptr noundef nonnull align 8 dereferenceable(208) %10) #11
  br label %16

16:                                               ; preds = %12, %5
  store ptr null, ptr %3, align 8, !tbaa !18
  br label %17

17:                                               ; preds = %16, %2
  ret i32 0
}